; Function Attrs: mustprogress uwtable
define hidden noundef i32 @_ZNK2pb10constraint12fold_max_varEj(ptr noundef nonnull align 8 dereferenceable(64) %0, i32 noundef %1) local_unnamed_addr #3 align 2 {
  %3 = getelementptr inbounds nuw i8, ptr %0, i64 16
  %.sroa.0.0.copyload.i = load i32, ptr %3, align 8, !tbaa !3
  %.not = icmp eq i32 %.sroa.0.0.copyload.i, -2
  %4 = lshr i32 %.sroa.0.0.copyload.i, 1
  %.sroa.speculated8 = tail call i32 @llvm.umax.i32(i32 %1, i32 %4)
  %.017 = select i1 %.not, i32 %1, i32 %.sroa.speculated8
  %5 = getelementptr inbounds nuw i8, ptr %0, i64 32
  %6 = load i32, ptr %5, align 8, !tbaa !7
  %.not20 = icmp eq i32 %6, 0
  br i1 %.not20, label %._crit_edge, label %.lr.ph

._crit_edge:                                      ; preds = %.lr.ph, %2
  %.1.lcssa = phi i32 [ %.017, %2 ], [ %.sroa.speculated, %.lr.ph ]
  ret i32 %.1.lcssa

.lr.ph:                                           ; preds = %2, %.lr.ph
  %.019 = phi i32 [ %12, %.lr.ph ], [ 0, %2 ]
  %.118 = phi i32 [ %.sroa.speculated, %.lr.ph ], [ %.017, %2 ]
  %7 = load ptr, ptr %0, align 8, !tbaa !13
  %8 = getelementptr inbounds nuw i8, ptr %7, i64 88
  %9 = load ptr, ptr %8, align 8
  %10 = tail call i32 %9(ptr noundef nonnull align 8 dereferenceable(64) %0, i32 noundef %.019)
  %11 = lshr i32 %10, 1
  %.sroa.speculated = tail call i32 @llvm.umax.i32(i32 %.118, i32 %11)
  %12 = add nuw i32 %.019, 1
  %13 = load i32, ptr %5, align 8, !tbaa !7
  %14 = icmp ult i32 %12, %13
  br i1 %14, label %.lr.ph, label %._crit_edge, !llvm.loop !15
}